; Function Attrs: nounwind uwtable
define dso_local ptr @EvalPlanQual(ptr noundef %0, ptr noundef %1, i32 noundef %2, ptr noundef %3) local_unnamed_addr #0 {
  tail call void @EvalPlanQualBegin(ptr noundef %0)
  %5 = getelementptr inbounds nuw i8, ptr %0, i64 32
  %6 = load ptr, ptr %5, align 8
  %7 = add i32 %2, -1
  %8 = zext i32 %7 to i64
  %9 = getelementptr inbounds nuw ptr, ptr %6, i64 %8
  %10 = load ptr, ptr %9, align 8
  %11 = icmp eq ptr %10, null
  br i1 %11, label %12, label %EvalPlanQualSlot.exit

12:                                               ; preds = %4
  %13 = load ptr, ptr %0, align 8
  %14 = getelementptr inbounds nuw i8, ptr %13, i64 192
  %15 = load ptr, ptr %14, align 8
  %16 = load ptr, ptr @CurrentMemoryContext, align 8
  store ptr %15, ptr @CurrentMemoryContext, align 8
  %17 = getelementptr inbounds nuw i8, ptr %0, i64 24
  %18 = tail call ptr @table_slot_create(ptr noundef %1, ptr noundef nonnull %17) #9
  store ptr %18, ptr %9, align 8
  store ptr %16, ptr @CurrentMemoryContext, align 8
  %.pre.i = load ptr, ptr %9, align 8
  br label %EvalPlanQualSlot.exit

EvalPlanQualSlot.exit:                            ; preds = %4, %12
  %19 = phi ptr [ %.pre.i, %12 ], [ %10, %4 ]
  %.not = icmp eq ptr %19, %3
  br i1 %.not, label %25, label %20

20:                                               ; preds = %EvalPlanQualSlot.exit
  %21 = getelementptr inbounds nuw i8, ptr %19, i64 8
  %22 = load ptr, ptr %21, align 8
  %23 = getelementptr inbounds nuw i8, ptr %22, i64 64
  %24 = load ptr, ptr %23, align 8
  tail call void %24(ptr noundef %19, ptr noundef %3) #9
  br label %25

25:                                               ; preds = %20, %EvalPlanQualSlot.exit
  %26 = getelementptr inbounds nuw i8, ptr %0, i64 80
  %27 = load ptr, ptr %26, align 8
  %28 = getelementptr inbounds nuw i8, ptr %27, i64 %8
  store i8 0, ptr %28, align 1
  %29 = getelementptr inbounds nuw i8, ptr %0, i64 88
  %30 = load ptr, ptr %29, align 8
  %31 = getelementptr inbounds nuw i8, ptr %30, i64 %8
  store i8 0, ptr %31, align 1
  %32 = getelementptr inbounds nuw i8, ptr %0, i64 64
  %33 = load ptr, ptr %32, align 8
  %34 = getelementptr inbounds nuw i8, ptr %33, i64 192
  %35 = load ptr, ptr %34, align 8
  %36 = load ptr, ptr @CurrentMemoryContext, align 8
  store ptr %35, ptr @CurrentMemoryContext, align 8
  %37 = getelementptr inbounds nuw i8, ptr %0, i64 96
  %38 = load ptr, ptr %37, align 8
  %39 = getelementptr inbounds nuw i8, ptr %38, i64 104
  %40 = load ptr, ptr %39, align 8
  %.not.i.i = icmp eq ptr %40, null
  br i1 %.not.i.i, label %EvalPlanQualNext.exit, label %41

41:                                               ; preds = %25
  tail call void @ExecReScan(ptr noundef nonnull %38) #9
  br label %EvalPlanQualNext.exit

EvalPlanQualNext.exit:                            ; preds = %25, %41
  %42 = getelementptr inbounds nuw i8, ptr %38, i64 24
  %43 = load ptr, ptr %42, align 8
  %44 = tail call ptr %43(ptr noundef nonnull %38) #9
  store ptr %36, ptr @CurrentMemoryContext, align 8
  %45 = icmp eq ptr %44, null
  br i1 %45, label %55, label %46

46:                                               ; preds = %EvalPlanQualNext.exit
  %47 = getelementptr inbounds nuw i8, ptr %44, i64 4
  %48 = load i16, ptr %47, align 4
  %49 = and i16 %48, 2
  %.not21 = icmp eq i16 %49, 0
  br i1 %.not21, label %50, label %55

50:                                               ; preds = %46
  %51 = getelementptr inbounds nuw i8, ptr %44, i64 8
  %52 = load ptr, ptr %51, align 8
  %53 = getelementptr inbounds nuw i8, ptr %52, i64 56
  %54 = load ptr, ptr %53, align 8
  tail call void %54(ptr noundef nonnull %44) #9
  br label %55

55:                                               ; preds = %50, %46, %EvalPlanQualNext.exit
  %56 = getelementptr inbounds nuw i8, ptr %19, i64 8
  %57 = load ptr, ptr %56, align 8
  %58 = getelementptr inbounds nuw i8, ptr %57, i64 24
  %59 = load ptr, ptr %58, align 8
  tail call void %59(ptr noundef %19) #9
  %60 = load ptr, ptr %29, align 8
  %61 = getelementptr inbounds nuw i8, ptr %60, i64 %8
  store i8 1, ptr %61, align 1
  ret ptr %44
}